target datalayout = "e-m:e-p270:32:32-p271:32:32-p272:64:64-i64:64-i128:128-f80:128-n8:16:32:64-S128"
target triple = "x86_64-pc-linux-gnu"

%struct.TuplesortPublic = type { ptr, ptr, ptr, ptr, ptr, ptr, ptr, ptr, ptr, i8, i32, ptr, ptr, i32, i8, ptr }
%struct.SortTuple = type { ptr, i64, i8, i32 }

@.str.1 = private unnamed_addr constant [20 x i8] c"tuplesortvariants.c\00", align 1
@.str.8 = private unnamed_addr constant [23 x i8] c"unexpected end of data\00", align 1
@__func__.readtup_datum = private unnamed_addr constant [14 x i8] c"readtup_datum\00", align 1

; Function Attrs: inlinehint nounwind uwtable
define internal i64 @PointerGetDatum(ptr noundef %0) #3 {
  %2 = alloca ptr, align 8
  store ptr %0, ptr %2, align 8
  %3 = load ptr, ptr %2, align 8
  %4 = ptrtoint ptr %3 to i64
  ret i64 %4
}

; Function Attrs: nounwind uwtable
define internal void @readtup_datum(ptr noundef %0, ptr noundef %1, ptr noundef %2, i32 noundef %3) #0 {
  %5 = alloca ptr, align 8
  %6 = alloca ptr, align 8
  %7 = alloca ptr, align 8
  %8 = alloca i32, align 4
  %9 = alloca ptr, align 8
  %10 = alloca i32, align 4
  %11 = alloca ptr, align 8
  store ptr %0, ptr %5, align 8
  store ptr %1, ptr %6, align 8
  store ptr %2, ptr %7, align 8
  store i32 %3, ptr %8, align 4
  call void @llvm.lifetime.start.p0(i64 8, ptr %9) #6
  %12 = load ptr, ptr %5, align 8
  store ptr %12, ptr %9, align 8
  call void @llvm.lifetime.start.p0(i64 4, ptr %10) #6
  %13 = load i32, ptr %8, align 4
  %14 = zext i32 %13 to i64
  %15 = sub i64 %14, 4
  %16 = trunc i64 %15 to i32
  store i32 %16, ptr %10, align 4
  %17 = load i32, ptr %10, align 4
  %18 = icmp eq i32 %17, 0
  br i1 %18, label %19, label %26

19:                                               ; preds = %4
  %20 = load ptr, ptr %6, align 8
  %21 = getelementptr inbounds nuw %struct.SortTuple, ptr %20, i32 0, i32 1
  store i64 0, ptr %21, align 8
  %22 = load ptr, ptr %6, align 8
  %23 = getelementptr inbounds nuw %struct.SortTuple, ptr %22, i32 0, i32 2
  store i8 1, ptr %23, align 8
  %24 = load ptr, ptr %6, align 8
  %25 = getelementptr inbounds nuw %struct.SortTuple, ptr %24, i32 0, i32 0
  store ptr null, ptr %25, align 8
  br label %98

26:                                               ; preds = %4
  %27 = load ptr, ptr %9, align 8
  %28 = getelementptr inbounds nuw %struct.TuplesortPublic, ptr %27, i32 0, i32 14
  %29 = load i8, ptr %28, align 4, !range !4, !noundef !5
  %30 = trunc i8 %29 to i1
  br i1 %30, label %60, label %31

31:                                               ; preds = %26
  br label %32

32:                                               ; preds = %31
  %33 = load ptr, ptr %7, align 8
  %34 = load ptr, ptr %6, align 8
  %35 = getelementptr inbounds nuw %struct.SortTuple, ptr %34, i32 0, i32 1
  %36 = load i32, ptr %10, align 4
  %37 = zext i32 %36 to i64
  %38 = call i64 @LogicalTapeRead(ptr noundef %33, ptr noundef %35, i64 noundef %37)
  %39 = load i32, ptr %10, align 4
  %40 = zext i32 %39 to i64
  %41 = icmp ne i64 %38, %40
  br i1 %41, label %42, label %53

42:                                               ; preds = %32
  br label %43

43:                                               ; preds = %42
  br i1 true, label %44, label %46

44:                                               ; preds = %43
  %45 = call zeroext i1 @errstart_cold(i32 noundef 21, ptr noundef null) #7
  br i1 %45, label %48, label %50

46:                                               ; preds = %43
  %47 = call zeroext i1 @errstart(i32 noundef 21, ptr noundef null)
  br i1 %47, label %48, label %50

48:                                               ; preds = %46, %44
  %49 = call i32 (ptr, ...) @errmsg_internal(ptr noundef @.str.8)
  call void @errfinish(ptr noundef @.str.1, i32 noundef 1860, ptr noundef @__func__.readtup_datum)
  br label %50

50:                                               ; preds = %48, %46, %44
  unreachable

51:                                               ; No predecessors!
  br label %52

52:                                               ; preds = %51
  br label %53

53:                                               ; preds = %52, %32
  br label %54

54:                                               ; preds = %53
  br label %55

55:                                               ; preds = %54
  %56 = load ptr, ptr %6, align 8
  %57 = getelementptr inbounds nuw %struct.SortTuple, ptr %56, i32 0, i32 2
  store i8 0, ptr %57, align 8
  %58 = load ptr, ptr %6, align 8
  %59 = getelementptr inbounds nuw %struct.SortTuple, ptr %58, i32 0, i32 0
  store ptr null, ptr %59, align 8
  br label %97

60:                                               ; preds = %26
  call void @llvm.lifetime.start.p0(i64 8, ptr %11) #6
  %61 = load ptr, ptr %5, align 8
  %62 = load i32, ptr %10, align 4
  %63 = zext i32 %62 to i64
  %64 = call ptr @tuplesort_readtup_alloc(ptr noundef %61, i64 noundef %63)
  store ptr %64, ptr %11, align 8
  br label %65

65:                                               ; preds = %60
  %66 = load ptr, ptr %7, align 8
  %67 = load ptr, ptr %11, align 8
  %68 = load i32, ptr %10, align 4
  %69 = zext i32 %68 to i64
  %70 = call i64 @LogicalTapeRead(ptr noundef %66, ptr noundef %67, i64 noundef %69)
  %71 = load i32, ptr %10, align 4
  %72 = zext i32 %71 to i64
  %73 = icmp ne i64 %70, %72
  br i1 %73, label %74, label %85

74:                                               ; preds = %65
  br label %75

75:                                               ; preds = %74
  br i1 true, label %76, label %78

76:                                               ; preds = %75
  %77 = call zeroext i1 @errstart_cold(i32 noundef 21, ptr noundef null) #7
  br i1 %77, label %80, label %82

78:                                               ; preds = %75
  %79 = call zeroext i1 @errstart(i32 noundef 21, ptr noundef null)
  br i1 %79, label %80, label %82

80:                                               ; preds = %78, %76
  %81 = call i32 (ptr, ...) @errmsg_internal(ptr noundef @.str.8)
  call void @errfinish(ptr noundef @.str.1, i32 noundef 1868, ptr noundef @__func__.readtup_datum)
  br label %82

82:                                               ; preds = %80, %78, %76
  unreachable

83:                                               ; No predecessors!
  br label %84

84:                                               ; preds = %83
  br label %85

85:                                               ; preds = %84, %65
  br label %86

86:                                               ; preds = %85
  br label %87

87:                                               ; preds = %86
  %88 = load ptr, ptr %11, align 8
  %89 = call i64 @PointerGetDatum(ptr noundef %88)
  %90 = load ptr, ptr %6, align 8
  %91 = getelementptr inbounds nuw %struct.SortTuple, ptr %90, i32 0, i32 1
  store i64 %89, ptr %91, align 8
  %92 = load ptr, ptr %6, align 8
  %93 = getelementptr inbounds nuw %struct.SortTuple, ptr %92, i32 0, i32 2
  store i8 0, ptr %93, align 8
  %94 = load ptr, ptr %11, align 8
  %95 = load ptr, ptr %6, align 8
  %96 = getelementptr inbounds nuw %struct.SortTuple, ptr %95, i32 0, i32 0
  store ptr %94, ptr %96, align 8
  call void @llvm.lifetime.end.p0(i64 8, ptr %11) #6
  br label %97

97:                                               ; preds = %87, %55
  br label %98

98:                                               ; preds = %97, %19
  %99 = load ptr, ptr %9, align 8
  %100 = getelementptr inbounds nuw %struct.TuplesortPublic, ptr %99, i32 0, i32 13
  %101 = load i32, ptr %100, align 8
  %102 = and i32 %101, 1
  %103 = icmp ne i32 %102, 0
  br i1 %103, label %104, label %123

104:                                              ; preds = %98
  br label %105

105:                                              ; preds = %104
  %106 = load ptr, ptr %7, align 8
  %107 = call i64 @LogicalTapeRead(ptr noundef %106, ptr noundef %10, i64 noundef 4)
  %108 = icmp ne i64 %107, 4
  br i1 %108, label %109, label %120

109:                                              ; preds = %105
  br label %110

110:                                              ; preds = %109
  br i1 true, label %111, label %113

111:                                              ; preds = %110
  %112 = call zeroext i1 @errstart_cold(i32 noundef 21, ptr noundef null) #7
  br i1 %112, label %115, label %117

113:                                              ; preds = %110
  %114 = call zeroext i1 @errstart(i32 noundef 21, ptr noundef null)
  br i1 %114, label %115, label %117

115:                                              ; preds = %113, %111
  %116 = call i32 (ptr, ...) @errmsg_internal(ptr noundef @.str.8)
  call void @errfinish(ptr noundef @.str.1, i32 noundef 1875, ptr noundef @__func__.readtup_datum)
  br label %117

117:                                              ; preds = %115, %113, %111
  unreachable

118:                                              ; No predecessors!
  br label %119

119:                                              ; preds = %118
  br label %120

120:                                              ; preds = %119, %105
  br label %121

121:                                              ; preds = %120
  br label %122

122:                                              ; preds = %121
  br label %123

123:                                              ; preds = %122, %98
  call void @llvm.lifetime.end.p0(i64 4, ptr %10) #6
  call void @llvm.lifetime.end.p0(i64 8, ptr %9) #6
  ret void
}