; Function Attrs: nounwind uwtable
define internal void @readtup_datum(ptr noundef %0, ptr noundef %1, ptr noundef %2, i32 noundef %3) #0 {
  %5 = alloca i32, align 4
  call void @llvm.lifetime.start.p0(i64 4, ptr nonnull %5) #12
  %6 = add i32 %3, -4
  store i32 %6, ptr %5, align 4
  %7 = icmp eq i32 %6, 0
  br i1 %7, label %.sink.split, label %8

8:                                                ; preds = %4
  %9 = getelementptr inbounds nuw i8, ptr %0, i64 100
  %10 = load i8, ptr %9, align 4, !range !4, !noundef !5
  %11 = trunc nuw i8 %10 to i1
  br i1 %11, label %19, label %12

12:                                               ; preds = %8
  %13 = getelementptr inbounds nuw i8, ptr %1, i64 8
  %14 = zext i32 %6 to i64
  %15 = tail call i64 @LogicalTapeRead(ptr noundef %2, ptr noundef nonnull %13, i64 noundef %14) #12
  %.not = icmp eq i64 %15, %14
  br i1 %.not, label %29, label %16

16:                                               ; preds = %12
  %17 = tail call zeroext i1 @errstart_cold(i32 noundef 21, ptr noundef null) #13
  tail call void @llvm.assume(i1 %17)
  %18 = tail call i32 (ptr, ...) @errmsg_internal(ptr noundef nonnull @.str.8) #12
  tail call void @errfinish(ptr noundef nonnull @.str.1, i32 noundef 1860, ptr noundef nonnull @__func__.readtup_datum) #12
  unreachable

19:                                               ; preds = %8
  %20 = zext i32 %6 to i64
  %21 = tail call ptr @tuplesort_readtup_alloc(ptr noundef nonnull %0, i64 noundef %20) #12
  %22 = tail call i64 @LogicalTapeRead(ptr noundef %2, ptr noundef %21, i64 noundef %20) #12
  %.not19 = icmp eq i64 %22, %20
  br i1 %.not19, label %26, label %23

23:                                               ; preds = %19
  %24 = tail call zeroext i1 @errstart_cold(i32 noundef 21, ptr noundef null) #13
  tail call void @llvm.assume(i1 %24)
  %25 = tail call i32 (ptr, ...) @errmsg_internal(ptr noundef nonnull @.str.8) #12
  tail call void @errfinish(ptr noundef nonnull @.str.1, i32 noundef 1868, ptr noundef nonnull @__func__.readtup_datum) #12
  unreachable

26:                                               ; preds = %19
  %27 = ptrtoint ptr %21 to i64
  br label %.sink.split

.sink.split:                                      ; preds = %4, %26
  %.sink24 = phi i64 [ %27, %26 ], [ 0, %4 ]
  %.sink22.ph = phi i8 [ 0, %26 ], [ 1, %4 ]
  %.sink.ph = phi ptr [ %21, %26 ], [ null, %4 ]
  %28 = getelementptr inbounds nuw i8, ptr %1, i64 8
  store i64 %.sink24, ptr %28, align 8
  br label %29

29:                                               ; preds = %.sink.split, %12
  %.sink22 = phi i8 [ 0, %12 ], [ %.sink22.ph, %.sink.split ]
  %.sink = phi ptr [ null, %12 ], [ %.sink.ph, %.sink.split ]
  %30 = getelementptr inbounds nuw i8, ptr %1, i64 16
  store i8 %.sink22, ptr %30, align 8
  store ptr %.sink, ptr %1, align 8
  %31 = getelementptr inbounds nuw i8, ptr %0, i64 96
  %32 = load i32, ptr %31, align 8
  %33 = and i32 %32, 1
  %.not20 = icmp eq i32 %33, 0
  br i1 %.not20, label %39, label %34

34:                                               ; preds = %29
  %35 = call i64 @LogicalTapeRead(ptr noundef %2, ptr noundef nonnull %5, i64 noundef 4) #12
  %.not21 = icmp eq i64 %35, 4
  br i1 %.not21, label %39, label %36

36:                                               ; preds = %34
  %37 = call zeroext i1 @errstart_cold(i32 noundef 21, ptr noundef null) #13
  call void @llvm.assume(i1 %37)
  %38 = call i32 (ptr, ...) @errmsg_internal(ptr noundef nonnull @.str.8) #12
  call void @errfinish(ptr noundef nonnull @.str.1, i32 noundef 1875, ptr noundef nonnull @__func__.readtup_datum) #12
  unreachable

39:                                               ; preds = %34, %29
  call void @llvm.lifetime.end.p0(i64 4, ptr nonnull %5) #12
  ret void
}